target datalayout = "e-m:e-p270:32:32-p271:32:32-p272:64:64-i64:64-i128:128-f80:128-n8:16:32:64-S128"
target triple = "x86_64-pc-linux-gnu"

%struct.strbuf = type { i64, i64, ptr }

@.str.26 = private unnamed_addr constant [9 x i8] c"cmd_name\00", align 1
@__const.fn_command_name_fl.buf_payload = private unnamed_addr constant %struct.strbuf { i64 0, i64 0, ptr @strbuf_slopbuf }, align 8
@.str.27 = private unnamed_addr constant [6 x i8] c" (%s)\00", align 1

; Function Attrs: inlinehint nounwind uwtable
define internal void @strbuf_addstr(ptr noundef %0, ptr noundef %1) #4 {
  %3 = alloca ptr, align 8
  %4 = alloca ptr, align 8
  store ptr %0, ptr %3, align 8, !tbaa !81
  store ptr %1, ptr %4, align 8, !tbaa !8
  %5 = load ptr, ptr %3, align 8, !tbaa !81
  %6 = load ptr, ptr %4, align 8, !tbaa !8
  %7 = load ptr, ptr %4, align 8, !tbaa !8
  %8 = call i64 @strlen(ptr noundef %7) #10
  call void @strbuf_add(ptr noundef %5, ptr noundef %6, i64 noundef %8)
  ret void
}

; Function Attrs: nounwind uwtable
define internal void @fn_command_name_fl(ptr noundef %0, i32 noundef %1, ptr noundef %2, ptr noundef %3) #0 {
  %5 = alloca ptr, align 8
  %6 = alloca i32, align 4
  %7 = alloca ptr, align 8
  %8 = alloca ptr, align 8
  %9 = alloca ptr, align 8
  %10 = alloca %struct.strbuf, align 8
  store ptr %0, ptr %5, align 8, !tbaa !8
  store i32 %1, ptr %6, align 4, !tbaa !4
  store ptr %2, ptr %7, align 8, !tbaa !8
  store ptr %3, ptr %8, align 8, !tbaa !8
  call void @llvm.lifetime.start.p0(i64 8, ptr %9) #9
  store ptr @.str.26, ptr %9, align 8, !tbaa !8
  call void @llvm.lifetime.start.p0(i64 24, ptr %10) #9
  call void @llvm.memcpy.p0.p0.i64(ptr align 8 %10, ptr align 8 @__const.fn_command_name_fl.buf_payload, i64 24, i1 false)
  %11 = load ptr, ptr %7, align 8, !tbaa !8
  call void @strbuf_addstr(ptr noundef %10, ptr noundef %11)
  %12 = load ptr, ptr %8, align 8, !tbaa !8
  %13 = icmp ne ptr %12, null
  br i1 %13, label %14, label %21

14:                                               ; preds = %4
  %15 = load ptr, ptr %8, align 8, !tbaa !8
  %16 = load i8, ptr %15, align 1, !tbaa !11
  %17 = sext i8 %16 to i32
  %18 = icmp ne i32 %17, 0
  br i1 %18, label %19, label %21

19:                                               ; preds = %14
  %20 = load ptr, ptr %8, align 8, !tbaa !8
  call void (ptr, ptr, ...) @strbuf_addf(ptr noundef %10, ptr noundef @.str.27, ptr noundef %20)
  br label %21

21:                                               ; preds = %19, %14, %4
  %22 = load ptr, ptr %5, align 8, !tbaa !8
  %23 = load i32, ptr %6, align 4, !tbaa !4
  %24 = load ptr, ptr %9, align 8, !tbaa !8
  call void @perf_io_write_fl(ptr noundef %22, i32 noundef %23, ptr noundef %24, ptr noundef null, ptr noundef null, ptr noundef null, ptr noundef null, ptr noundef %10)
  call void @strbuf_release(ptr noundef %10)
  call void @llvm.lifetime.end.p0(i64 24, ptr %10) #9
  call void @llvm.lifetime.end.p0(i64 8, ptr %9) #9
  ret void
}