; Function Attrs: nounwind uwtable
define internal void @fn_command_name_fl(ptr noundef %0, i32 noundef %1, ptr noundef %2, ptr noundef %3) #0 {
  %5 = alloca %struct.strbuf, align 8
  call void @llvm.lifetime.start.p0(i64 24, ptr nonnull %5) #7
  call void @llvm.memcpy.p0.p0.i64(ptr noundef nonnull align 8 dereferenceable(24) %5, ptr noundef nonnull align 8 dereferenceable(24) @__const.fn_counter.buf_payload, i64 24, i1 false)
  %6 = tail call i64 @strlen(ptr noundef nonnull dereferenceable(1) %2) #8
  call void @strbuf_add(ptr noundef nonnull %5, ptr noundef nonnull %2, i64 noundef %6) #7
  %.not = icmp eq ptr %3, null
  br i1 %.not, label %10, label %7

7:                                                ; preds = %4
  %8 = load i8, ptr %3, align 1, !tbaa !4
  %.not6 = icmp eq i8 %8, 0
  br i1 %.not6, label %10, label %9

9:                                                ; preds = %7
  call void (ptr, ptr, ...) @strbuf_addf(ptr noundef nonnull %5, ptr noundef nonnull @.str.27, ptr noundef nonnull %3) #7
  br label %10

10:                                               ; preds = %9, %7, %4
  call fastcc void @perf_io_write_fl(ptr noundef %0, i32 noundef %1, ptr noundef nonnull @.str.26, ptr noundef null, ptr noundef null, ptr noundef null, ptr noundef null, ptr noundef %5)
  call void @strbuf_release(ptr noundef nonnull %5) #7
  call void @llvm.lifetime.end.p0(i64 24, ptr nonnull %5) #7
  ret void
}